(lp0
S'http://www.flickr.com/photos/barfuss_/4347218894/'
p1
aS'http://www.flickr.com/photos/sulamith/4346465661/'
p2
aS'http://www.flickr.com/photos/69652923%40N00/4347201228/'
p3
aS'http://www.flickr.com/photos/vinztofs/4347187382/'
p4
aS'http://www.flickr.com/photos/69652923%40N00/4347180774/'
p5
aS'http://www.flickr.com/photos/69652923%40N00/4347195762/'
p6
aS'http://www.flickr.com/photos/46619066%40N00/4347194360/'
p7
aS'http://www.flickr.com/photos/69652923%40N00/4346442573/'
p8
aS'http://www.flickr.com/photos/tags/reichstag/show/with/4319663767/?page=6'
p9
aS'http://www.flickr.com/photos/tags/berlin/?page=11'
p10
aS'http://www.flickr.com/photos/tags/berlin/?page=12'
p11
aS'http://www.flickr.com/photos/tags/berlin/?page=13'
p12
aS'http://www.flickr.com/photos/flobbergobber/4319663767/'
p13
aS'http://www.flickr.com/photos/flobbergobber/4319664275/'
p14
aS'http://www.flickr.com/photos/andle/4320391878/'
p15
aS'http://www.flickr.com/photos/philboism/4319658963/'
p16
aS'http://www.flickr.com/photos/philboism/4319660513/'
p17
aS'http://www.flickr.com/photos/flobbergobber/4320396250/'
p18
aS'http://www.flickr.com/photos/flobbergobber/4319663271/'
p19
aS'http://www.flickr.com/photos/philboism/4319656929/'
p20
aS'http://www.flickr.com/photos/flobbergobber/4319663419/'
p21
aS'http://www.flickr.com/photos/rissevommond/4318140303/'
p22
aS'http://www.flickr.com/photos/mncesbron/4317929755/'
p23
aS'http://www.flickr.com/photos/mncesbron/4318666716/'
p24
aS'http://www.flickr.com/photos/mncesbron/4318666536/'
p25
aS'http://www.flickr.com/photos/mncesbron/4317929961/'
p26
aS'http://www.flickr.com/photos/mncesbron/4318666258/'
p27
aS'http://www.flickr.com/photos/mncesbron/4317930117/'
p28
aS'http://www.flickr.com/photos/mncesbron/4317930485/'
p29
aS'http://www.flickr.com/photos/mncesbron/4318666912/'
p30
aS'http://www.flickr.com/photos/mncesbron/4318665580/'
p31
aS'http://www.flickr.com/photos/mncesbron/4317932391/'
p32
aS'http://www.flickr.com/photos/mncesbron/4317932913/'
p33
aS'http://www.flickr.com/photos/mncesbron/4317932251/'
p34
aS'http://www.flickr.com/photos/mncesbron/4318667332/'
p35
aS'http://www.flickr.com/photos/mncesbron/4317933599/'
p36
aS'http://www.flickr.com/photos/tags/birthday/show/with/4347987912/?page=2'
p37
aS'http://www.flickr.com/photos/tags/reichstag/?page=8'
p38
aS'http://www.flickr.com/photos/tags/reichstag/?page=9'
p39
aS'http://www.flickr.com/photos/77208861%40N00/4347985560/'
p40
aS'http://www.flickr.com/photos/77208861%40N00/4347984790/'
p41
aS'http://www.flickr.com/photos/77208861%40N00/4347990216/'
p42
aS'http://www.flickr.com/photos/77208861%40N00/4347989436/'
p43
aS'http://www.flickr.com/photos/77208861%40N00/4347239589/'
p44
aS'http://www.flickr.com/photos/77208861%40N00/4347238995/'
p45
aS'http://www.flickr.com/photos/77208861%40N00/4347986406/'
p46
aS'http://www.flickr.com/photos/77208861%40N00/4347238395/'
p47
aS'http://www.flickr.com/photos/77208861%40N00/4347989712/'
p48
aS'http://www.flickr.com/photos/77208861%40N00/4347238063/'
p49
aS'http://www.flickr.com/photos/77208861%40N00/4347989966/'
p50
aS'http://www.flickr.com/photos/sometomfoolery/4347995784/'
p51
aS'http://www.flickr.com/photos/77208861%40N00/4347988336/'
p52
aS'http://www.flickr.com/photos/77208861%40N00/4347240909/'
p53
aS'http://www.flickr.com/photos/77208861%40N00/4347989342/'
p54
aS'http://www.flickr.com/photos/77208861%40N00/4347243063/'
p55
aS'http://www.flickr.com/photos/77208861%40N00/4347986090/'
p56
aS'http://www.flickr.com/photos/77208861%40N00/4347988970/'
p57
aS'http://www.flickr.com/photos/77208861%40N00/4347988858/'
p58
aS'http://www.flickr.com/photos/77208861%40N00/4347984658/'
p59
aS'http://www.flickr.com/photos/77208861%40N00/4347237683/'
p60
aS'http://www.flickr.com/photos/77208861%40N00/4347240823/'
p61
aS'http://www.flickr.com/photos/77208861%40N00/4347242075/'
p62
aS'http://www.flickr.com/photos/tags/reichstag/show/with/4016740452/?page=7'
p63
aS'http://www.flickr.com/photos/llamalens/4016740452/'
p64
aS'http://www.flickr.com/photos/salynaz/4315957478/'
p65
aS'http://www.flickr.com/photos/mncesbron/4317930269/'
p66
aS'http://www.flickr.com/photos/mncesbron/4317932581/'
p67
aS'http://www.flickr.com/photos/mncesbron/4318663124/'
p68
aS'http://www.flickr.com/photos/mncesbron/4318662734/'
p69
aS'http://www.flickr.com/photos/mncesbron/4317929389/'
p70
aS'http://www.flickr.com/photos/berlijnblog/4318579874/'
p71
aS'http://www.flickr.com/photos/yostinator/4316712641/'
p72
aS'http://www.flickr.com/photos/anksunamun/4316670832/'
p73
aS'http://www.flickr.com/photos/anksunamun/4315937403/'
p74
aS'http://www.flickr.com/photos/anksunamun/4315937671/'
p75
aS'http://www.flickr.com/photos/quicksilver/4315404035/'
p76
aS'http://www.flickr.com/photos/howzey/4315218207/'
p77
aS'http://www.flickr.com/photos/30616966%40N08/4315006010/'
p78
aS'http://www.flickr.com/photos/iflickrtoo/4313762195/'
p79
aS'http://www.flickr.com/photos/iflickrtoo/4313762275/'
p80
aS'http://www.flickr.com/photos/wet_knee/4313579605/'
p81
aS'http://www.flickr.com/photos/46974236%40N05/4314097662/'
p82
aS'http://www.flickr.com/photos/46173505%40N02/4313843462/'
p83
aS'http://www.flickr.com/photos/shsalbums/4313736366/'
p84
aS'http://www.flickr.com/photos/shsalbums/4313000343/'
p85
aS'http://www.flickr.com/photos/shsalbums/4313000037/'
p86
aS'http://www.flickr.com/photos/shsalbums/4313736980/'
p87
aS'http://www.flickr.com/photos/tags/reichstag/?page=10'
p88
aS'http://www.flickr.com/photos/langkawi/3288502950/'
p89
aS'http://www.flickr.com/photos/jupp1957/4077554192/'
p90
aS'http://www.flickr.com/photos/rebecca_bexxi/3990239343/'
p91
aS'http://www.flickr.com/photos/altraa/2803019128/'
p92
aS'http://www.flickr.com/photos/batram/4011410839/'
p93
aS'http://www.flickr.com/photos/goodredroad/2946617844/'
p94
aS'http://www.flickr.com/photos/gzzt/3894288380/'
p95
aS'http://www.flickr.com/photos/stefanocipriani/3040860398/'
p96
aS'http://www.flickr.com/photos/monicanon/3924204300/'
p97
aS'http://www.flickr.com/photos/mindlessafternoon/2253143136/'
p98
aS'http://www.flickr.com/photos/docholiday41/3686841565/'
p99
aS'http://www.flickr.com/photos/frozenfrana/3121035932/'
p100
aS'http://www.flickr.com/photos/alexjacek/3262895853/'
p101
aS'http://www.flickr.com/photos/wecand/3360374401/'
p102
aS'http://www.flickr.com/photos/une_petit_touche_franaise/3639889532/'
p103
aS'http://www.flickr.com/photos/teflon/3700125297/'
p104
aS'http://www.flickr.com/photos/vip223/2855126597/'
p105
aS'http://www.flickr.com/photos/mbiddulph/4017061115/'
p106
aS'http://www.flickr.com/photos/digger87/4033664893/'
p107
aS'http://www.flickr.com/photos/tags/berlin'
p108
aS'http://www.flickr.com/photos/tags/berlin/clusters/fernsehturm-alexanderplatz-tower/page2/'
p109
aS'http://www.flickr.com/photos/tags/berlin/clusters/fernsehturm-alexanderplatz-tower/page3/'
p110
aS'http://www.flickr.com/photos/tags/berlin/clusters/fernsehturm-alexanderplatz-tower/page4/'
p111
aS'http://www.flickr.com/photos/tags/berlin/clusters/fernsehturm-alexanderplatz-tower/page5/'
p112
aS'http://www.flickr.com/photos/tags/berlin/clusters/fernsehturm-alexanderplatz-tower/page6/'
p113
aS'http://www.flickr.com/photos/tags/berlin/clusters/fernsehturm-alexanderplatz-tower/page7/'
p114
aS'http://www.flickr.com/photos/tags/berlin/clusters/fernsehturm-alexanderplatz-tower/page49/'
p115
aS'http://www.flickr.com/photos/tags/berlin/clusters/fernsehturm-alexanderplatz-tower/page50/'
p116
aS'http://www.flickr.com/photos/tags/birthday/show/with/4347141733/?page=8'
p117
aS'http://www.flickr.com/photos/44686975%40N03/4347141733/'
p118
aS'http://www.flickr.com/photos/44686975%40N03/4347139457/'
p119
aS'http://www.flickr.com/photos/44686975%40N03/4347142943/'
p120
aS'http://www.flickr.com/photos/44686975%40N03/4347890860/'
p121
aS'http://www.flickr.com/photos/33409888%40N06/4347897838/'
p122
aS'http://www.flickr.com/photos/44686975%40N03/4347141135/'
p123
aS'http://www.flickr.com/photos/44686975%40N03/4347144105/'
p124
aS'http://www.flickr.com/photos/44686975%40N03/4347143477/'
p125
aS'http://www.flickr.com/photos/44686975%40N03/4347889652/'
p126
aS'http://www.flickr.com/photos/44686975%40N03/4347143645/'
p127
aS'http://www.flickr.com/photos/molarose/4347870318/'
p128
aS'http://www.flickr.com/photos/rneuman/4347099269/'
p129
aS'http://www.flickr.com/photos/44637495%40N07/4347837360/'
p130
aS'http://www.flickr.com/photos/rneuman/4347091377/'
p131
aS'http://www.flickr.com/photos/rneuman/4347095379/'
p132
aS'http://www.flickr.com/photos/rneuman/4347841720/'
p133
aS'http://www.flickr.com/photos/rneuman/4347098043/'
p134
aS'http://www.flickr.com/photos/alanhyland/4347851074/'
p135
aS'http://www.flickr.com/photos/rneuman/4347096775/'
p136
aS'http://www.flickr.com/photos/tags/birthday/show/with/4347820912/?page=10'
p137
aS'http://www.flickr.com/photos/42603853%40N02/4347841904/'
p138
aS'http://www.flickr.com/photos/42603853%40N02/4347842792/'
p139
aS'http://www.flickr.com/photos/44637495%40N07/4347837170/'
p140
aS'http://www.flickr.com/photos/rneuman/4347840466/'
p141
aS'http://www.flickr.com/photos/42603853%40N02/4347093751/'
p142
aS'http://www.flickr.com/photos/44637495%40N07/4347820912/'
p143
aS'http://www.flickr.com/photos/44637495%40N07/4347831062/'
p144
aS'http://www.flickr.com/photos/44637495%40N07/4347831176/'
p145
aS'http://www.flickr.com/photos/44637495%40N07/4347078113/'
p146
aS'http://www.flickr.com/photos/44637495%40N07/4347076465/'
p147
aS'http://www.flickr.com/photos/44637495%40N07/4347085367/'
p148
aS'http://www.flickr.com/photos/44637495%40N07/4347822380/'
p149
aS'http://www.flickr.com/photos/44637495%40N07/4347084273/'
p150
aS'http://www.flickr.com/photos/44637495%40N07/4347817778/'
p151
aS'http://www.flickr.com/photos/44637495%40N07/4347833472/'
p152
aS'http://www.flickr.com/photos/44637495%40N07/4347071349/'
p153
aS'http://www.flickr.com/photos/44637495%40N07/4347082087/'
p154
aS'http://www.flickr.com/photos/44637495%40N07/4347089247/'
p155
aS'http://www.flickr.com/photos/44637495%40N07/4347832288/'
p156
aS'http://www.flickr.com/photos/44637495%40N07/4347827760/'
p157
aS'http://www.flickr.com/photos/44637495%40N07/4347076073/'
p158
aS'http://www.flickr.com/photos/44637495%40N07/4347828866/'
p159
aS'http://www.flickr.com/photos/44637495%40N07/4347080887/'
p160
aS'http://www.flickr.com/photos/44637495%40N07/4347828318/'
p161
aS'http://www.flickr.com/photos/44637495%40N07/4347817368/'
p162
aS'http://www.flickr.com/photos/44637495%40N07/4347835510/'
p163
aS'http://www.flickr.com/photos/tags/birthday/show/with/4347093751/?page=9'
p164
aS'http://www.flickr.com/photos/tags/birthday/?page=11'
p165
aS'http://www.flickr.com/photos/44637495%40N07/4347827152/'
p166
aS'http://www.flickr.com/photos/44637495%40N07/4347084181/'
p167
aS'http://www.flickr.com/photos/44637495%40N07/4347828220/'
p168
aS'http://www.flickr.com/photos/42603853%40N02/4347093325/'
p169
aS'http://www.flickr.com/photos/42603853%40N02/4347842338/'
p170
aS'http://www.flickr.com/photos/alanhyland/4347851742/'
p171
aS'http://www.flickr.com/photos/stephaniezens/4347091731/'
p172
aS'http://www.flickr.com/photos/42603853%40N02/4347095469/'
p173
aS'http://www.flickr.com/photos/42603853%40N02/4347094391/'
p174
aS'http://www.flickr.com/photos/42603853%40N02/4347841316/'
p175
aS'http://www.flickr.com/photos/42603853%40N02/4347093977/'
p176
aS'http://www.flickr.com/photos/44637495%40N07/4347071849/'
p177
aS'http://www.flickr.com/photos/44637495%40N07/4347082349/'
p178
aS'http://www.flickr.com/photos/44637495%40N07/4347087501/'
p179
aS'http://www.flickr.com/photos/44637495%40N07/4347821562/'
p180
aS'http://www.flickr.com/photos/44637495%40N07/4347070409/'
p181
aS'http://www.flickr.com/photos/44637495%40N07/4347830798/'
p182
aS'http://www.flickr.com/photos/44637495%40N07/4347087397/'
p183
aS'http://www.flickr.com/photos/44637495%40N07/4347834528/'
p184
aS'http://www.flickr.com/photos/44637495%40N07/4347818780/'
p185
aS'http://www.flickr.com/photos/44637495%40N07/4347822506/'
p186
aS'http://www.flickr.com/photos/44637495%40N07/4347071679/'
p187
aS'http://www.flickr.com/photos/44637495%40N07/4347833132/'
p188
aS'http://www.flickr.com/photos/44637495%40N07/4347834382/'
p189
aS'http://www.flickr.com/photos/44637495%40N07/4347088761/'
p190
aS'http://www.flickr.com/photos/tags/birthday/?page=12'
p191
aS'http://www.flickr.com/photos/tags/birthday/?page=13'
p192
aS'http://www.flickr.com/photos/groovie1/3480857262/'
p193
aS'http://www.flickr.com/photos/openrivers/3927228478/'
p194
aS'http://www.flickr.com/photos/fkhuckel/3078020317/'
p195
aS'http://www.flickr.com/photos/jj-shgfun/4014320338/'
p196
aS'http://www.flickr.com/photos/martinteschner/4038164814/'
p197
aS'http://www.flickr.com/photos/jusan/3810430549/'
p198
aS'http://www.flickr.com/photos/florence_craye/2910110067/'
p199
aS'http://www.flickr.com/photos/ralf/2132638847/'
p200
aS'http://www.flickr.com/photos/16574234%40N00/2486969624/'
p201
aS'http://www.flickr.com/photos/h1n5/3402599462/'
p202
aS'http://www.flickr.com/photos/conte/3969566839/'
p203
aS'http://www.flickr.com/photos/arconada/3673856303/'
p204
aS'http://www.flickr.com/photos/photographtheworld/3591991223/'
p205
aS'http://www.flickr.com/photos/minarai/3618871393/'
p206
aS'http://www.flickr.com/photos/39872784%40N05/4042474596/'
p207
aS'http://www.flickr.com/photos/sandraletten/3849652831/'
p208
aS'http://www.flickr.com/photos/pieroprv/2694046334/'
p209
aS'http://www.flickr.com/photos/cedrouille/3293415012/'
p210
aS'http://www.flickr.com/photos/deadstar/2354552973/'
p211
aS'http://www.flickr.com/photos/phileas_fog/3195450690/'
p212
aS'http://www.flickr.com/photos/jameswhittingham/3950182528/'
p213
aS'http://www.flickr.com/photos/roslol/3634647469/'
p214
aS'http://www.flickr.com/photos/cartmann/2570319054/'
p215
aS'http://www.flickr.com/photos/21090845%40N06/3096779340/'
p216
aS'http://www.flickr.com/photos/tags/berlin/clusters/fernsehturm-alexanderplatz-tower/page8/'
p217
aS'http://www.flickr.com/photos/tags/berlin/clusters/fernsehturm-alexanderplatz-tower/page9/'
p218
aS'http://www.flickr.com/photos/tags/berlin/clusters/fernsehturm-alexanderplatz-tower/page10/'
p219
aS'http://www.flickr.com/photos/tags/reichstag/show/with/4308818615/?page=10'
p220
aS'http://www.flickr.com/photos/ldossantos/4308818615/'
p221
aS'http://www.flickr.com/photos/norbert_2010/4308445347/'
p222
aS'http://www.flickr.com/photos/38514863%40N05/4307052329/'
p223
aS'http://www.flickr.com/photos/breixopazos/4306684991/'
p224
aS'http://www.flickr.com/photos/breixopazos/4306691165/'
p225
aS'http://www.flickr.com/photos/breixopazos/4306679191/'
p226
aS'http://www.flickr.com/photos/breixopazos/4306687601/'
p227
aS'http://www.flickr.com/photos/breixopazos/4306682319/'
p228
aS'http://www.flickr.com/photos/workspace__25/4306502573/'
p229
aS'http://www.flickr.com/photos/workspace__25/4306497979/'
p230
aS'http://www.flickr.com/photos/workspace__25/4307241476/'
p231
aS'http://www.flickr.com/photos/workspace__25/4307243830/'
p232
aS'http://www.flickr.com/photos/workspace__25/4306499709/'
p233
aS'http://www.flickr.com/photos/workspace__25/4307242838/'
p234
aS'http://www.flickr.com/photos/workspace__25/4307242412/'
p235
aS'http://www.flickr.com/photos/workspace__25/4307244210/'
p236
aS'http://www.flickr.com/photos/workspace__25/4306501115/'
p237
aS'http://www.flickr.com/photos/workspace__25/4307219046/'
p238
aS'http://www.flickr.com/photos/workspace__25/4306483121/'
p239
aS'http://www.flickr.com/photos/ldossantos/4308818617/'
p240
aS'http://www.flickr.com/photos/45537032%40N04/4308508487/'
p241
aS'http://www.flickr.com/photos/45537032%40N04/4309252040/'
p242
aS'http://www.flickr.com/photos/ldossantos/4306762281/'
p243
aS'http://www.flickr.com/photos/sr14700/4306577175/'
p244
aS'http://www.flickr.com/photos/tags/reichstag/?page=11'
p245
aS'http://www.flickr.com/photos/tags/reichstag/?page=12'
p246
aS'http://www.flickr.com/photos/tags/reichstag/?page=13'
p247
aS'http://www.flickr.com/photos/rena-t/2345293049/'
p248
aS'http://www.flickr.com/photos/metxi/2713458219/'
p249
aS'http://www.flickr.com/photos/acb/2294929074/'
p250
aS'http://www.flickr.com/photos/21903142%40N00/2830832452/'
p251
aS'http://www.flickr.com/photos/jurjen_nl/3825874997/'
p252
aS'http://www.flickr.com/photos/positiv/1808023792/'
p253
aS'http://www.flickr.com/photos/arndalarm/2664059730/'
p254
aS'http://www.flickr.com/photos/jengel2008/4022116357/'
p255
aS'http://www.flickr.com/photos/petrastarosky/3778605242/'
p256
aS'http://www.flickr.com/photos/13676773%40N00/2443659633/'
p257
aS'http://www.flickr.com/photos/cranjam/2536464601/'
p258
aS'http://www.flickr.com/photos/9453416%40N08/2346748055/'
p259
aS'http://www.flickr.com/photos/juan-images/3470789311/'
p260
aS'http://www.flickr.com/photos/15082599%40N08/2603249541/'
p261
aS'http://www.flickr.com/photos/ir_u/2590074018/'
p262
aS'http://www.flickr.com/photos/marco_capitanio/3255864197/'
p263
aS'http://www.flickr.com/photos/catchcan/3217121583/'
p264
aS'http://www.flickr.com/photos/jumpingjellyfish/3371703493/'
p265
aS'http://www.flickr.com/photos/limpfish/3389945562/'
p266
aS'http://www.flickr.com/photos/12609867%40N08/3766337464/'
p267
aS'http://www.flickr.com/photos/carhartl/3369320797/'
p268
aS'http://www.flickr.com/photos/withmyeyes/3836034869/'
p269
aS'http://www.flickr.com/photos/skb1963/2860986356/'
p270
aS'http://www.flickr.com/photos/deerisch/502495658/'
p271
aS'http://www.flickr.com/photos/schwend/4023483272/'
p272
aS'http://www.flickr.com/photos/yushimoto_02/3859167697/'
p273
aS'http://www.flickr.com/photos/hankypankynohow/2227650717/'
p274
aS'http://www.flickr.com/photos/67468930%40N00/2383569508/'
p275
aS'http://www.flickr.com/photos/eckiblue/1464396608/'
p276
aS'http://www.flickr.com/photos/ksuehring/2942350127/'
p277
aS'http://www.flickr.com/photos/gherm/3553858271/'
p278
aS'http://www.flickr.com/photos/letlet/3774123985/'
p279
aS'http://www.flickr.com/photos/hotelchelsea/2646468251/'
p280
aS'http://www.flickr.com/photos/kgreipel/2894843526/'
p281
aS'http://www.flickr.com/photos/whisperpress/3528239213/'
p282
aS'http://www.flickr.com/photos/enricarchivell/3589956852/'
p283
aS'http://www.flickr.com/photos/michael_westdickenberg/2977272507/'
p284
aS'http://www.flickr.com/photos/shaunweston/3809211502/'
p285
aS'http://www.flickr.com/photos/28292431%40N06/3519408283/'
p286
aS'http://www.flickr.com/photos/26088600%40N08/3647942701/'
p287
aS'http://www.flickr.com/photos/knusperfelix/2792741902/'
p288
aS'http://www.flickr.com/photos/bdhalle/3424870019/'
p289
aS'http://www.flickr.com/photos/omaruebelhart/2793196487/'
p290
aS'http://www.flickr.com/photos/the_cha/619467731/'
p291
aS'http://www.flickr.com/photos/edellepi/3951587978/'
p292
aS'http://www.flickr.com/photos/pandas/2551184842/'
p293
aS'http://www.flickr.com/photos/27302326%40N08/3769380606/'
p294
aS'http://www.flickr.com/photos/erlebenwasverbindet/3545495487/'
p295
aS'http://www.flickr.com/photos/tags/berlin/clusters/fernsehturm-alexanderplatz-tower/page48/'
p296
aS'http://www.flickr.com/photos/tags/berlin/clusters/fernsehturm-alexanderplatz-tower/page44/'
p297
aS'http://www.flickr.com/photos/tags/berlin/clusters/fernsehturm-alexanderplatz-tower/page45/'
p298
aS'http://www.flickr.com/photos/tags/berlin/clusters/fernsehturm-alexanderplatz-tower/page46/'
p299
aS'http://www.flickr.com/photos/tags/berlin/clusters/fernsehturm-alexanderplatz-tower/page47/'
p300
a.